target datalayout = "e-m:e-p270:32:32-p271:32:32-p272:64:64-i64:64-i128:128-f80:128-n8:16:32:64-S128"
target triple = "x86_64-pc-linux-gnu"

%struct.ast_state = type { %struct._PyOnceFlag, i32, ptr, ptr, ptr, ptr, ptr, ptr, ptr, ptr, ptr, ptr, ptr, ptr, ptr, ptr, ptr, ptr, ptr, ptr, ptr, ptr, ptr, ptr, ptr, ptr, ptr, ptr, ptr, ptr, ptr, ptr, ptr, ptr, ptr, ptr, ptr, ptr, ptr, ptr, ptr, ptr, ptr, ptr, ptr, ptr, ptr, ptr, ptr, ptr, ptr, ptr, ptr, ptr, ptr, ptr, ptr, ptr, ptr, ptr, ptr, ptr, ptr, ptr, ptr, ptr, ptr, ptr, ptr, ptr, ptr, ptr, ptr, ptr, ptr, ptr, ptr, ptr, ptr, ptr, ptr, ptr, ptr, ptr, ptr, ptr, ptr, ptr, ptr, ptr, ptr, ptr, ptr, ptr, ptr, ptr, ptr, ptr, ptr, ptr, ptr, ptr, ptr, ptr, ptr, ptr, ptr, ptr, ptr, ptr, ptr, ptr, ptr, ptr, ptr, ptr, ptr, ptr, ptr, ptr, ptr, ptr, ptr, ptr, ptr, ptr, ptr, ptr, ptr, ptr, ptr, ptr, ptr, ptr, ptr, ptr, ptr, ptr, ptr, ptr, ptr, ptr, ptr, ptr, ptr, ptr, ptr, ptr, ptr, ptr, ptr, ptr, ptr, ptr, ptr, ptr, ptr, ptr, ptr, ptr, ptr, ptr, ptr, ptr, ptr, ptr, ptr, ptr, ptr, ptr, ptr, ptr, ptr, ptr, ptr, ptr, ptr, ptr, ptr, ptr, ptr, ptr, ptr, ptr, ptr, ptr, ptr, ptr, ptr, ptr, ptr, ptr, ptr, ptr, ptr, ptr, ptr, ptr, ptr, ptr, ptr, ptr, ptr, ptr, ptr, ptr, ptr, ptr, ptr, ptr, ptr, ptr, ptr, ptr, ptr, ptr, ptr, ptr, ptr, ptr, ptr, ptr, ptr, ptr, ptr, ptr, ptr, ptr, ptr, ptr, ptr, ptr, ptr, ptr, ptr, ptr, ptr, ptr, ptr, ptr, ptr, ptr, ptr, ptr, ptr }
%struct._PyOnceFlag = type { i8 }

@PyExc_TypeError = external global ptr, align 8
@.str.749 = private unnamed_addr constant [47 x i8] c"expected some sort of expr_context, but got %R\00", align 1

; Function Attrs: nounwind uwtable
define internal i32 @obj2ast_expr_context(ptr noundef %0, ptr noundef %1, ptr noundef %2, ptr noundef %3) #0 {
  %5 = alloca i32, align 4
  %6 = alloca ptr, align 8
  %7 = alloca ptr, align 8
  %8 = alloca ptr, align 8
  %9 = alloca ptr, align 8
  %10 = alloca i32, align 4
  %11 = alloca i32, align 4
  store ptr %0, ptr %6, align 8, !tbaa !9
  store ptr %1, ptr %7, align 8, !tbaa !13
  store ptr %2, ptr %8, align 8, !tbaa !26
  store ptr %3, ptr %9, align 8, !tbaa !24
  call void @llvm.lifetime.start.p0(i64 4, ptr %10) #8
  %12 = load ptr, ptr %7, align 8, !tbaa !13
  %13 = load ptr, ptr %6, align 8, !tbaa !9
  %14 = getelementptr inbounds nuw %struct.ast_state, ptr %13, i32 0, i32 74
  %15 = load ptr, ptr %14, align 8, !tbaa !233
  %16 = call i32 @PyObject_IsInstance(ptr noundef %12, ptr noundef %15)
  store i32 %16, ptr %10, align 4, !tbaa !38
  %17 = load i32, ptr %10, align 4, !tbaa !38
  %18 = icmp eq i32 %17, -1
  br i1 %18, label %19, label %20

19:                                               ; preds = %4
  store i32 -1, ptr %5, align 4
  store i32 1, ptr %11, align 4
  br label %57

20:                                               ; preds = %4
  %21 = load i32, ptr %10, align 4, !tbaa !38
  %22 = icmp ne i32 %21, 0
  br i1 %22, label %23, label %25

23:                                               ; preds = %20
  %24 = load ptr, ptr %8, align 8, !tbaa !26
  store i32 1, ptr %24, align 4, !tbaa !38
  store i32 0, ptr %5, align 4
  store i32 1, ptr %11, align 4
  br label %57

25:                                               ; preds = %20
  %26 = load ptr, ptr %7, align 8, !tbaa !13
  %27 = load ptr, ptr %6, align 8, !tbaa !9
  %28 = getelementptr inbounds nuw %struct.ast_state, ptr %27, i32 0, i32 119
  %29 = load ptr, ptr %28, align 8, !tbaa !234
  %30 = call i32 @PyObject_IsInstance(ptr noundef %26, ptr noundef %29)
  store i32 %30, ptr %10, align 4, !tbaa !38
  %31 = load i32, ptr %10, align 4, !tbaa !38
  %32 = icmp eq i32 %31, -1
  br i1 %32, label %33, label %34

33:                                               ; preds = %25
  store i32 -1, ptr %5, align 4
  store i32 1, ptr %11, align 4
  br label %57

34:                                               ; preds = %25
  %35 = load i32, ptr %10, align 4, !tbaa !38
  %36 = icmp ne i32 %35, 0
  br i1 %36, label %37, label %39

37:                                               ; preds = %34
  %38 = load ptr, ptr %8, align 8, !tbaa !26
  store i32 2, ptr %38, align 4, !tbaa !38
  store i32 0, ptr %5, align 4
  store i32 1, ptr %11, align 4
  br label %57

39:                                               ; preds = %34
  %40 = load ptr, ptr %7, align 8, !tbaa !13
  %41 = load ptr, ptr %6, align 8, !tbaa !9
  %42 = getelementptr inbounds nuw %struct.ast_state, ptr %41, i32 0, i32 31
  %43 = load ptr, ptr %42, align 8, !tbaa !235
  %44 = call i32 @PyObject_IsInstance(ptr noundef %40, ptr noundef %43)
  store i32 %44, ptr %10, align 4, !tbaa !38
  %45 = load i32, ptr %10, align 4, !tbaa !38
  %46 = icmp eq i32 %45, -1
  br i1 %46, label %47, label %48

47:                                               ; preds = %39
  store i32 -1, ptr %5, align 4
  store i32 1, ptr %11, align 4
  br label %57

48:                                               ; preds = %39
  %49 = load i32, ptr %10, align 4, !tbaa !38
  %50 = icmp ne i32 %49, 0
  br i1 %50, label %51, label %53

51:                                               ; preds = %48
  %52 = load ptr, ptr %8, align 8, !tbaa !26
  store i32 3, ptr %52, align 4, !tbaa !38
  store i32 0, ptr %5, align 4
  store i32 1, ptr %11, align 4
  br label %57

53:                                               ; preds = %48
  %54 = load ptr, ptr @PyExc_TypeError, align 8, !tbaa !13
  %55 = load ptr, ptr %7, align 8, !tbaa !13
  %56 = call ptr (ptr, ptr, ...) @PyErr_Format(ptr noundef %54, ptr noundef @.str.749, ptr noundef %55)
  store i32 -1, ptr %5, align 4
  store i32 1, ptr %11, align 4
  br label %57

57:                                               ; preds = %53, %51, %47, %37, %33, %23, %19
  call void @llvm.lifetime.end.p0(i64 4, ptr %10) #8
  %58 = load i32, ptr %5, align 4
  ret i32 %58
}