; Function Attrs: nounwind uwtable
define internal fastcc range(i32 -1, 1) i32 @obj2ast_expr_context(ptr noundef nonnull readonly captures(none) %0, ptr noundef %1, ptr noundef nonnull writeonly captures(none) %2) unnamed_addr #0 {
  %4 = getelementptr inbounds nuw i8, ptr %0, i64 584
  %5 = load ptr, ptr %4, align 8, !tbaa !213
  %6 = tail call i32 @PyObject_IsInstance(ptr noundef %1, ptr noundef %5) #8
  switch i32 %6, label %7 [
    i32 -1, label %21
    i32 0, label %8
  ]

7:                                                ; preds = %3
  store i32 1, ptr %2, align 4, !tbaa !402
  br label %21

8:                                                ; preds = %3
  %9 = getelementptr inbounds nuw i8, ptr %0, i64 944
  %10 = load ptr, ptr %9, align 8, !tbaa !214
  %11 = tail call i32 @PyObject_IsInstance(ptr noundef %1, ptr noundef %10) #8
  switch i32 %11, label %12 [
    i32 -1, label %21
    i32 0, label %13
  ]

12:                                               ; preds = %8
  store i32 2, ptr %2, align 4, !tbaa !402
  br label %21

13:                                               ; preds = %8
  %14 = getelementptr inbounds nuw i8, ptr %0, i64 240
  %15 = load ptr, ptr %14, align 8, !tbaa !215
  %16 = tail call i32 @PyObject_IsInstance(ptr noundef %1, ptr noundef %15) #8
  switch i32 %16, label %17 [
    i32 -1, label %21
    i32 0, label %18
  ]

17:                                               ; preds = %13
  store i32 3, ptr %2, align 4, !tbaa !402
  br label %21

18:                                               ; preds = %13
  %19 = load ptr, ptr @PyExc_TypeError, align 8, !tbaa !4
  %20 = tail call ptr (ptr, ptr, ...) @PyErr_Format(ptr noundef %19, ptr noundef nonnull @.str.749, ptr noundef %1) #8
  br label %21

21:                                               ; preds = %13, %8, %3, %18, %17, %12, %7
  %.0 = phi i32 [ 0, %7 ], [ 0, %12 ], [ 0, %17 ], [ -1, %18 ], [ %6, %3 ], [ %11, %8 ], [ %16, %13 ]
  ret i32 %.0
}